CCS PCM C Compiler, Version 4.104, 5967               01-fev-13 02:16

               Filename: C:\Alberto\Projetos\PICBluetooth\bluetooth.lst

               ROM used: 299 words (4%)
                         Largest free fragment is 2048
               RAM used: 16 (4%) at main() level
                         18 (5%) worst case
               Stack:    2 worst case (1 in main + 1 for interrupts)

*
0000:  MOVLW  00
0001:  MOVWF  0A
0002:  GOTO   09E
0003:  NOP
0004:  MOVWF  7F
0005:  SWAPF  03,W
0006:  CLRF   03
0007:  MOVWF  21
0008:  MOVF   0A,W
0009:  MOVWF  20
000A:  CLRF   0A
000B:  MOVF   04,W
000C:  MOVWF  22
000D:  MOVF   77,W
000E:  MOVWF  23
000F:  MOVF   78,W
0010:  MOVWF  24
0011:  MOVF   79,W
0012:  MOVWF  25
0013:  MOVF   7A,W
0014:  MOVWF  26
0015:  BCF    03.7
0016:  BCF    03.5
0017:  MOVLW  8C
0018:  MOVWF  04
0019:  BTFSS  00.5
001A:  GOTO   01D
001B:  BTFSC  0C.5
001C:  GOTO   02E
001D:  MOVF   22,W
001E:  MOVWF  04
001F:  MOVF   23,W
0020:  MOVWF  77
0021:  MOVF   24,W
0022:  MOVWF  78
0023:  MOVF   25,W
0024:  MOVWF  79
0025:  MOVF   26,W
0026:  MOVWF  7A
0027:  MOVF   20,W
0028:  MOVWF  0A
0029:  SWAPF  21,W
002A:  MOVWF  03
002B:  SWAPF  7F,F
002C:  SWAPF  7F,W
002D:  RETFIE
002E:  BCF    0A.3
002F:  BCF    0A.4
0030:  GOTO   031
.................... #include "C:\Alberto\Projetos\PICBluetooth\bluetooth.h" 
.................... #include <16F877A.h> 
.................... //////// Standard Header file for the PIC16F877A device //////////////// 
.................... #device PIC16F877A 
.................... #list 
....................  
.................... #device adc=8 
....................  
.................... #FUSES NOWDT                 	//No Watch Dog Timer 
.................... #FUSES HS                    	//High speed Osc (> 4mhz for PCM/PCH) (>10mhz for PCD) 
.................... #FUSES NOPUT                 	//No Power Up Timer 
.................... #FUSES NOPROTECT             	//Code not protected from reading 
.................... #FUSES NODEBUG               	//No Debug mode for ICD 
.................... #FUSES BROWNOUT              	//Reset when brownout detected 
.................... #FUSES NOLVP                 	//No low voltage prgming, B3(PIC16) or B5(PIC18) used for I/O 
.................... #FUSES NOCPD                 	//No EE protection 
.................... #FUSES NOWRT                 	//Program memory not write protected 
.................... #FUSES RESERVED              	//Used to set the reserved FUSE bits 
....................  
.................... #use delay(clock=20000000) 
*
0088:  MOVLW  2B
0089:  MOVWF  04
008A:  BCF    03.7
008B:  MOVF   00,W
008C:  BTFSC  03.2
008D:  GOTO   09B
008E:  MOVLW  06
008F:  MOVWF  78
0090:  CLRF   77
0091:  DECFSZ 77,F
0092:  GOTO   091
0093:  DECFSZ 78,F
0094:  GOTO   090
0095:  MOVLW  7B
0096:  MOVWF  77
0097:  DECFSZ 77,F
0098:  GOTO   097
0099:  DECFSZ 00,F
009A:  GOTO   08E
009B:  BCF    0A.3
009C:  BCF    0A.4
009D:  GOTO   127 (RETURN)
.................... #use rs232(baud=9600,parity=N,xmit=PIN_C6,rcv=PIN_C7,bits=8) 
....................  
....................  
....................  
.................... unsigned int8 lido; 
.................... int1 data_avail = FALSE; 
....................  
.................... #int_RDA 
.................... void  RDA_isr(void)  
.................... { 
....................   lido = getc(); 
*
0031:  BTFSS  0C.5
0032:  GOTO   031
0033:  MOVF   1A,W
0034:  MOVWF  27
....................   data_avail = TRUE; 
0035:  BSF    28.0
.................... } 
....................  
....................  
....................  
0036:  BCF    0C.5
0037:  BCF    0A.3
0038:  BCF    0A.4
0039:  GOTO   01D
.................... void main() 
.................... { 
*
009E:  CLRF   04
009F:  BCF    03.7
00A0:  MOVLW  1F
00A1:  ANDWF  03,F
00A2:  MOVLW  81
00A3:  BSF    03.5
00A4:  MOVWF  19
00A5:  MOVLW  A6
00A6:  MOVWF  18
00A7:  MOVLW  90
00A8:  BCF    03.5
00A9:  MOVWF  18
00AA:  BCF    28.0
00AB:  BSF    03.5
00AC:  BSF    1F.0
00AD:  BSF    1F.1
00AE:  BSF    1F.2
00AF:  BCF    1F.3
00B0:  MOVLW  07
00B1:  MOVWF  1C
....................  
....................    setup_adc_ports(NO_ANALOGS); 
*
00B5:  BSF    03.5
00B6:  BSF    1F.0
00B7:  BSF    1F.1
00B8:  BSF    1F.2
00B9:  BCF    1F.3
....................    setup_adc(ADC_CLOCK_DIV_2); 
00BA:  BCF    1F.6
00BB:  BCF    03.5
00BC:  BCF    1F.6
00BD:  BCF    1F.7
00BE:  BSF    03.5
00BF:  BCF    1F.7
00C0:  BCF    03.5
00C1:  BSF    1F.0
....................    setup_psp(PSP_DISABLED); 
00C2:  BSF    03.5
00C3:  BCF    09.4
....................    setup_spi(SPI_SS_DISABLED); 
00C4:  BCF    03.5
00C5:  BCF    14.5
00C6:  BCF    29.5
00C7:  MOVF   29,W
00C8:  BSF    03.5
00C9:  MOVWF  07
00CA:  BCF    03.5
00CB:  BSF    29.4
00CC:  MOVF   29,W
00CD:  BSF    03.5
00CE:  MOVWF  07
00CF:  BCF    03.5
00D0:  BCF    29.3
00D1:  MOVF   29,W
00D2:  BSF    03.5
00D3:  MOVWF  07
00D4:  MOVLW  01
00D5:  BCF    03.5
00D6:  MOVWF  14
00D7:  MOVLW  00
00D8:  BSF    03.5
00D9:  MOVWF  14
....................    setup_timer_0(RTCC_INTERNAL|RTCC_DIV_1); 
00DA:  MOVF   01,W
00DB:  ANDLW  C7
00DC:  IORLW  08
00DD:  MOVWF  01
....................    setup_timer_1(T1_DISABLED); 
00DE:  BCF    03.5
00DF:  CLRF   10
....................    setup_timer_2(T2_DISABLED,0,1); 
00E0:  MOVLW  00
00E1:  MOVWF  78
00E2:  MOVWF  12
00E3:  MOVLW  00
00E4:  BSF    03.5
00E5:  MOVWF  12
....................    setup_comparator(NC_NC_NC_NC); 
00E6:  MOVLW  07
00E7:  MOVWF  1C
00E8:  MOVF   05,W
00E9:  MOVWF  05
00EA:  MOVLW  10
00EB:  MOVWF  77
00EC:  DECFSZ 77,F
00ED:  GOTO   0EC
00EE:  NOP
00EF:  MOVF   1C,W
00F0:  BCF    03.5
00F1:  BCF    0D.6
....................    setup_vref(FALSE); 
00F2:  BSF    03.5
00F3:  CLRF   1D
....................    enable_interrupts(INT_RDA); 
00F4:  BSF    0C.5
....................    enable_interrupts(GLOBAL); 
00F5:  MOVLW  C0
00F6:  BCF    03.5
00F7:  IORWF  0B,F
....................  
....................    // TODO: USER CODE!! 
....................     
....................     while (TRUE) { 
....................       if (data_avail){   
00F8:  BTFSS  28.0
00F9:  GOTO   129
....................          data_avail = FALSE; 
00FA:  BCF    28.0
....................          if(lido=='1') { 
00FB:  MOVF   27,W
00FC:  SUBLW  31
00FD:  BTFSS  03.2
00FE:  GOTO   10A
....................              output_high(PIN_B1); 
00FF:  BSF    03.5
0100:  BCF    06.1
0101:  BCF    03.5
0102:  BSF    06.1
....................              printf("ligou 1"); 
0103:  MOVLW  3A
0104:  BSF    03.6
0105:  MOVWF  0D
0106:  MOVLW  00
0107:  MOVWF  0F
0108:  BCF    03.6
0109:  GOTO   03E
....................          } 
....................          if(lido=='2') output_high(PIN_B2); 
010A:  MOVF   27,W
010B:  SUBLW  32
010C:  BTFSS  03.2
010D:  GOTO   112
010E:  BSF    03.5
010F:  BCF    06.2
0110:  BCF    03.5
0111:  BSF    06.2
....................          if(lido=='A') output_low(PIN_B1); 
0112:  MOVF   27,W
0113:  SUBLW  41
0114:  BTFSS  03.2
0115:  GOTO   11A
0116:  BSF    03.5
0117:  BCF    06.1
0118:  BCF    03.5
0119:  BCF    06.1
....................          if(lido=='B') output_low(PIN_B2); 
011A:  MOVF   27,W
011B:  SUBLW  42
011C:  BTFSS  03.2
011D:  GOTO   122
011E:  BSF    03.5
011F:  BCF    06.2
0120:  BCF    03.5
0121:  BCF    06.2
....................          delay_ms(300); 
0122:  MOVLW  02
0123:  MOVWF  2A
0124:  MOVLW  96
0125:  MOVWF  2B
0126:  GOTO   088
0127:  DECFSZ 2A,F
0128:  GOTO   124
....................        } 
....................     } 
0129:  GOTO   0F8
....................  
.................... } 
012A:  SLEEP

Configuration Fuses:
   Word  1: 3F7A   HS NOWDT NOPUT NODEBUG NOPROTECT BROWNOUT NOLVP NOCPD NOWRT
