CCS PCM C Compiler, Version 4.020, 25097               30-mai-12 17:04

               Filename: C:\Curso PIC\Setesegmento\setesegmento.lst

               ROM used: 283 words (3%)
                         Largest free fragment is 2048
               RAM used: 8 (2%) at main() level
                         9 (2%) worst case
               Stack:    2 locations

*
0000:  MOVLW  00
0001:  MOVWF  0A
0002:  GOTO   0C5
0003:  NOP
.................... //#include "C:\Curso PIC\Setesegmento\setesegmento.h" 
.................... #include <16F877A.h> 
.................... //////// Standard Header file for the PIC16F877A device //////////////// 
.................... #device PIC16F877A 
.................... #list 
....................  
.................... #device adc=8 
....................  
.................... #FUSES NOWDT                    //No Watch Dog Timer 
.................... #FUSES HS                       //Resistor/Capacitor Osc with CLKOUT 
.................... #FUSES NOPUT                    //No Power Up Timer 
.................... #FUSES NOPROTECT                //Code not protected from reading 
.................... #FUSES NODEBUG                  //No Debug mode for ICD 
.................... #FUSES BROWNOUT                 //Reset when brownout detected 
.................... #FUSES NOLVP                    //No low voltage prgming, B3(PIC16) or B5(PIC18) used for I/O 
.................... #FUSES NOCPD                    //No EE protection 
.................... #FUSES NOWRT                    //Program memory not write protected 
....................  
.................... #use delay(clock=20000000) 
*
005E:  MOVLW  22
005F:  MOVWF  04
0060:  BCF    03.7
0061:  MOVF   00,W
0062:  BTFSC  03.2
0063:  GOTO   071
0064:  MOVLW  06
0065:  MOVWF  78
0066:  CLRF   77
0067:  DECFSZ 77,F
0068:  GOTO   067
0069:  DECFSZ 78,F
006A:  GOTO   066
006B:  MOVLW  7B
006C:  MOVWF  77
006D:  DECFSZ 77,F
006E:  GOTO   06D
006F:  DECFSZ 00,F
0070:  GOTO   064
0071:  RETLW  00
....................  
....................  
.................... #define n0 0b00111111 
.................... #define n1 0b00000110 
.................... #define n2 0b01011011 
.................... #define n3 0b01001111 
.................... #define n4 0b01100110 
.................... #define n5 0b01101101 
.................... #define n6 0b01111101 
.................... #define n7 0b00000111 
.................... #define n8 0b01111111 
.................... #define n9 0b01101111 
....................  
....................  
.................... void AjustaDezena(int8 valor){ 
....................      
....................     if(valor == 0){ 
*
0004:  MOVF   22,F
0005:  BTFSS  03.2
0006:  GOTO   00C
....................        output_B(n0); 
0007:  BSF    03.5
0008:  CLRF   06
0009:  MOVLW  3F
000A:  BCF    03.5
000B:  MOVWF  06
....................     }  
....................      
....................     if(valor == 1){  
000C:  DECFSZ 22,W
000D:  GOTO   013
....................        output_B(n1); 
000E:  BSF    03.5
000F:  CLRF   06
0010:  MOVLW  06
0011:  BCF    03.5
0012:  MOVWF  06
....................     } 
....................      
....................     if(valor == 2){ 
0013:  MOVF   22,W
0014:  SUBLW  02
0015:  BTFSS  03.2
0016:  GOTO   01C
....................        output_B(n2);  
0017:  BSF    03.5
0018:  CLRF   06
0019:  MOVLW  5B
001A:  BCF    03.5
001B:  MOVWF  06
....................     } 
....................      
....................     if(valor == 3){ 
001C:  MOVF   22,W
001D:  SUBLW  03
001E:  BTFSS  03.2
001F:  GOTO   025
....................       output_B(n3); 
0020:  BSF    03.5
0021:  CLRF   06
0022:  MOVLW  4F
0023:  BCF    03.5
0024:  MOVWF  06
....................     } 
....................      
....................     if(valor == 4){ 
0025:  MOVF   22,W
0026:  SUBLW  04
0027:  BTFSS  03.2
0028:  GOTO   02E
....................       output_B(n4); 
0029:  BSF    03.5
002A:  CLRF   06
002B:  MOVLW  66
002C:  BCF    03.5
002D:  MOVWF  06
....................     } 
....................      
....................     if(valor == 5){ 
002E:  MOVF   22,W
002F:  SUBLW  05
0030:  BTFSS  03.2
0031:  GOTO   037
....................      output_B(n5); 
0032:  BSF    03.5
0033:  CLRF   06
0034:  MOVLW  6D
0035:  BCF    03.5
0036:  MOVWF  06
....................     } 
....................       
....................     if(valor == 6){  
0037:  MOVF   22,W
0038:  SUBLW  06
0039:  BTFSS  03.2
003A:  GOTO   040
....................      output_B(n6); 
003B:  BSF    03.5
003C:  CLRF   06
003D:  MOVLW  7D
003E:  BCF    03.5
003F:  MOVWF  06
....................     } 
....................      
....................     if(valor == 7){ 
0040:  MOVF   22,W
0041:  SUBLW  07
0042:  BTFSS  03.2
0043:  GOTO   049
....................      output_B(n7); 
0044:  BSF    03.5
0045:  CLRF   06
0046:  MOVLW  07
0047:  BCF    03.5
0048:  MOVWF  06
....................     } 
....................     if(valor == 8){ 
0049:  MOVF   22,W
004A:  SUBLW  08
004B:  BTFSS  03.2
004C:  GOTO   052
....................      output_B(n8); 
004D:  BSF    03.5
004E:  CLRF   06
004F:  MOVLW  7F
0050:  BCF    03.5
0051:  MOVWF  06
....................     } 
....................      
....................     if(valor == 9){ 
0052:  MOVF   22,W
0053:  SUBLW  09
0054:  BTFSS  03.2
0055:  GOTO   05B
....................      output_B(n9); 
0056:  BSF    03.5
0057:  CLRF   06
0058:  MOVLW  6F
0059:  BCF    03.5
005A:  MOVWF  06
....................     } 
....................    
....................       
....................       
....................  
.................... } 
005B:  BCF    0A.3
005C:  BCF    0A.4
005D:  GOTO   115 (RETURN)
....................  
.................... void ContaUnidades(){ 
....................      output_D(n0); 
*
0072:  BSF    03.5
0073:  CLRF   08
0074:  MOVLW  3F
0075:  BCF    03.5
0076:  MOVWF  08
....................      delay_ms(50); 
0077:  MOVLW  32
0078:  MOVWF  22
0079:  CALL   05E
....................      output_D(n1); 
007A:  BSF    03.5
007B:  CLRF   08
007C:  MOVLW  06
007D:  BCF    03.5
007E:  MOVWF  08
....................      delay_ms(50); 
007F:  MOVLW  32
0080:  MOVWF  22
0081:  CALL   05E
....................      output_D(n2);  
0082:  BSF    03.5
0083:  CLRF   08
0084:  MOVLW  5B
0085:  BCF    03.5
0086:  MOVWF  08
....................      delay_ms(50); 
0087:  MOVLW  32
0088:  MOVWF  22
0089:  CALL   05E
....................      output_D(n3); 
008A:  BSF    03.5
008B:  CLRF   08
008C:  MOVLW  4F
008D:  BCF    03.5
008E:  MOVWF  08
....................      delay_ms(50); 
008F:  MOVLW  32
0090:  MOVWF  22
0091:  CALL   05E
....................      output_D(n4); 
0092:  BSF    03.5
0093:  CLRF   08
0094:  MOVLW  66
0095:  BCF    03.5
0096:  MOVWF  08
....................      delay_ms(50); 
0097:  MOVLW  32
0098:  MOVWF  22
0099:  CALL   05E
....................      output_D(n5); 
009A:  BSF    03.5
009B:  CLRF   08
009C:  MOVLW  6D
009D:  BCF    03.5
009E:  MOVWF  08
....................      delay_ms(50); 
009F:  MOVLW  32
00A0:  MOVWF  22
00A1:  CALL   05E
....................      output_D(n6); 
00A2:  BSF    03.5
00A3:  CLRF   08
00A4:  MOVLW  7D
00A5:  BCF    03.5
00A6:  MOVWF  08
....................      delay_ms(50); 
00A7:  MOVLW  32
00A8:  MOVWF  22
00A9:  CALL   05E
....................      output_D(n7); 
00AA:  BSF    03.5
00AB:  CLRF   08
00AC:  MOVLW  07
00AD:  BCF    03.5
00AE:  MOVWF  08
....................      delay_ms(50); 
00AF:  MOVLW  32
00B0:  MOVWF  22
00B1:  CALL   05E
....................      output_D(n8); 
00B2:  BSF    03.5
00B3:  CLRF   08
00B4:  MOVLW  7F
00B5:  BCF    03.5
00B6:  MOVWF  08
....................      delay_ms(50); 
00B7:  MOVLW  32
00B8:  MOVWF  22
00B9:  CALL   05E
....................      output_D(n9); 
00BA:  BSF    03.5
00BB:  CLRF   08
00BC:  MOVLW  6F
00BD:  BCF    03.5
00BE:  MOVWF  08
....................      delay_ms(50); 
00BF:  MOVLW  32
00C0:  MOVWF  22
00C1:  CALL   05E
....................  
.................... } 
00C2:  BCF    0A.3
00C3:  BCF    0A.4
00C4:  GOTO   116 (RETURN)
....................  
.................... void main() 
.................... { 
00C5:  CLRF   04
00C6:  BCF    03.7
00C7:  MOVLW  1F
00C8:  ANDWF  03,F
00C9:  BSF    03.5
00CA:  BSF    1F.0
00CB:  BSF    1F.1
00CC:  BSF    1F.2
00CD:  BCF    1F.3
00CE:  MOVLW  07
00CF:  MOVWF  1C
....................    int8 i; 
....................    setup_adc_ports(NO_ANALOGS); 
*
00D3:  BSF    03.5
00D4:  BSF    1F.0
00D5:  BSF    1F.1
00D6:  BSF    1F.2
00D7:  BCF    1F.3
....................    setup_adc(ADC_OFF); 
00D8:  BCF    03.5
00D9:  BCF    1F.0
....................    setup_psp(PSP_DISABLED); 
00DA:  BSF    03.5
00DB:  BCF    09.4
....................    setup_spi(FALSE); 
*
00D0:  MOVLW  FF
00D1:  BCF    03.5
00D2:  MOVWF  20
*
00DC:  BCF    03.5
00DD:  BCF    14.5
00DE:  BCF    20.5
00DF:  MOVF   20,W
00E0:  BSF    03.5
00E1:  MOVWF  07
00E2:  BCF    03.5
00E3:  BSF    20.4
00E4:  MOVF   20,W
00E5:  BSF    03.5
00E6:  MOVWF  07
00E7:  BCF    03.5
00E8:  BCF    20.3
00E9:  MOVF   20,W
00EA:  BSF    03.5
00EB:  MOVWF  07
00EC:  MOVLW  00
00ED:  BCF    03.5
00EE:  MOVWF  14
00EF:  BSF    03.5
00F0:  MOVWF  14
....................    setup_timer_0(RTCC_INTERNAL|RTCC_DIV_1); 
00F1:  MOVF   01,W
00F2:  ANDLW  C7
00F3:  IORLW  08
00F4:  MOVWF  01
....................    setup_timer_1(T1_DISABLED); 
00F5:  BCF    03.5
00F6:  CLRF   10
....................    setup_timer_2(T2_DISABLED,0,1); 
00F7:  MOVLW  00
00F8:  MOVWF  78
00F9:  MOVWF  12
00FA:  MOVLW  00
00FB:  BSF    03.5
00FC:  MOVWF  12
....................    setup_comparator(NC_NC_NC_NC); 
00FD:  MOVLW  07
00FE:  MOVWF  1C
00FF:  MOVF   05,W
0100:  MOVLW  10
0101:  MOVWF  77
0102:  DECFSZ 77,F
0103:  GOTO   102
0104:  NOP
0105:  MOVF   1C,W
0106:  BCF    03.5
0107:  BCF    0D.6
....................    setup_vref(FALSE); 
0108:  BSF    03.5
0109:  CLRF   1D
....................  
....................    output_D(0); 
010A:  CLRF   08
010B:  BCF    03.5
010C:  CLRF   08
....................    while(true){ 
....................     for(i=0;i<=9;i=i+1){ 
010D:  CLRF   21
010E:  MOVF   21,W
010F:  SUBLW  09
0110:  BTFSS  03.0
0111:  GOTO   119
....................       AjustaDezena(i); 
0112:  MOVF   21,W
0113:  MOVWF  22
0114:  GOTO   004
....................       ContaUnidades(); 
0115:  GOTO   072
....................      } 
0116:  MOVLW  01
0117:  ADDWF  21,F
0118:  GOTO   10E
....................      
....................       
....................    } 
0119:  GOTO   10D
....................  
.................... } 
011A:  SLEEP

Configuration Fuses:
   Word  1: 3F7A   HS NOWDT NOPUT NODEBUG NOPROTECT BROWNOUT NOLVP NOCPD NOWRT
